; Function Attrs: mustprogress uwtable
define hidden void @_ZN2cv4face18FacemarkKazemiImpl10readPixelsERSt14basic_ifstreamIcSt11char_traitsIcEEm(ptr noundef nonnull readonly align 8 captures(none) dereferenceable(216) %0, ptr noundef nonnull align 8 dereferenceable(256) %1, i64 noundef %2) local_unnamed_addr #5 align 2 {
  %4 = getelementptr inbounds nuw i8, ptr %0, i64 176
  %5 = load ptr, ptr %4, align 8, !tbaa !27
  %6 = getelementptr inbounds nuw %"class.std::vector", ptr %5, i64 %2
  %7 = load ptr, ptr %6, align 8, !tbaa !30
  %8 = getelementptr inbounds nuw i8, ptr %6, i64 8
  %9 = load ptr, ptr %8, align 8, !tbaa !28
  %10 = ptrtoint ptr %9 to i64
  %11 = ptrtoint ptr %7 to i64
  %12 = sub i64 %10, %11
  %13 = tail call noundef nonnull align 8 dereferenceable(16) ptr @_ZNSi4readEPcl(ptr noundef nonnull align 8 dereferenceable(16) %1, ptr noundef nonnull %7, i64 noundef %12)
  ret void
}